target datalayout = "e-m:e-p270:32:32-p271:32:32-p272:64:64-i64:64-i128:128-f80:128-n8:16:32:64-S128"
target triple = "x86_64-pc-linux-gnu"

%struct.HeapScanDescData = type { %struct.TableScanDescData, i32, i32, i32, i8, i16, i32, i32, ptr, %struct.HeapTupleData, ptr, i32, i32, ptr, i32, i32, [291 x i16] }
%struct.TableScanDescData = type { ptr, ptr, i32, ptr, %union.anon, i32, ptr }
%union.anon = type { %struct.TBMIterator }
%struct.TBMIterator = type { i8, %union.anon.0 }
%union.anon.0 = type { ptr }
%struct.HeapTupleData = type { i32, %struct.ItemPointerData, i32, ptr }
%struct.ItemPointerData = type { %struct.BlockIdData, i16 }
%struct.BlockIdData = type { i16, i16 }
%struct.RelationData = type { %struct.RelFileLocator, ptr, i32, i32, i8, i8, i8, i8, i8, i32, i32, i32, i32, ptr, ptr, i32, %struct.LockInfoData, ptr, ptr, ptr, ptr, ptr, i8, ptr, ptr, ptr, ptr, ptr, ptr, i32, ptr, i8, ptr, ptr, i32, i8, i32, ptr, i8, ptr, ptr, ptr, ptr, ptr, ptr, ptr, i32, ptr, ptr, ptr, ptr, ptr, ptr, ptr, ptr, ptr, ptr, ptr, ptr, ptr, ptr, ptr, ptr, ptr, ptr, ptr, i32, i8, ptr }
%struct.RelFileLocator = type { i32, i32, i32 }
%struct.LockInfoData = type { %struct.LockRelId }
%struct.LockRelId = type { i32, i32 }
%struct.PgStat_TableStatus = type { i32, i8, ptr, %struct.PgStat_TableCounts, ptr }
%struct.PgStat_TableCounts = type { i64, i64, i64, i64, i64, i64, i64, i64, i8, i64, i64, i64, i64, i64 }
%struct.TupleTableSlot = type { i32, i16, i16, ptr, ptr, ptr, ptr, ptr, %struct.ItemPointerData, i32 }
%struct.TupleTableSlotOps = type { i64, ptr, ptr, ptr, ptr, ptr, ptr, ptr, ptr, ptr, ptr, ptr, ptr }

; Function Attrs: inlinehint nounwind uwtable
define internal ptr @ExecClearTuple(ptr noundef %0) #3 {
  %2 = alloca ptr, align 8
  store ptr %0, ptr %2, align 8
  %3 = load ptr, ptr %2, align 8
  %4 = getelementptr inbounds nuw %struct.TupleTableSlot, ptr %3, i32 0, i32 3
  %5 = load ptr, ptr %4, align 8
  %6 = getelementptr inbounds nuw %struct.TupleTableSlotOps, ptr %5, i32 0, i32 3
  %7 = load ptr, ptr %6, align 8
  %8 = load ptr, ptr %2, align 8
  call void %7(ptr noundef %8)
  %9 = load ptr, ptr %2, align 8
  ret ptr %9
}

; Function Attrs: nounwind uwtable
define dso_local zeroext i1 @heap_getnextslot(ptr noundef %0, i32 noundef %1, ptr noundef %2) #0 {
  %4 = alloca i1, align 1
  %5 = alloca ptr, align 8
  %6 = alloca i32, align 4
  %7 = alloca ptr, align 8
  %8 = alloca ptr, align 8
  %9 = alloca i32, align 4
  store ptr %0, ptr %5, align 8
  store i32 %1, ptr %6, align 4
  store ptr %2, ptr %7, align 8
  call void @llvm.lifetime.start.p0(i64 8, ptr %8) #10
  %10 = load ptr, ptr %5, align 8
  store ptr %10, ptr %8, align 8
  %11 = load ptr, ptr %5, align 8
  %12 = getelementptr inbounds nuw %struct.TableScanDescData, ptr %11, i32 0, i32 5
  %13 = load i32, ptr %12, align 8
  %14 = and i32 %13, 256
  %15 = icmp ne i32 %14, 0
  br i1 %15, label %16, label %25

16:                                               ; preds = %3
  %17 = load ptr, ptr %8, align 8
  %18 = load i32, ptr %6, align 4
  %19 = load ptr, ptr %5, align 8
  %20 = getelementptr inbounds nuw %struct.TableScanDescData, ptr %19, i32 0, i32 2
  %21 = load i32, ptr %20, align 8
  %22 = load ptr, ptr %5, align 8
  %23 = getelementptr inbounds nuw %struct.TableScanDescData, ptr %22, i32 0, i32 3
  %24 = load ptr, ptr %23, align 8
  call void @heapgettup_pagemode(ptr noundef %17, i32 noundef %18, i32 noundef %21, ptr noundef %24)
  br label %34

25:                                               ; preds = %3
  %26 = load ptr, ptr %8, align 8
  %27 = load i32, ptr %6, align 4
  %28 = load ptr, ptr %5, align 8
  %29 = getelementptr inbounds nuw %struct.TableScanDescData, ptr %28, i32 0, i32 2
  %30 = load i32, ptr %29, align 8
  %31 = load ptr, ptr %5, align 8
  %32 = getelementptr inbounds nuw %struct.TableScanDescData, ptr %31, i32 0, i32 3
  %33 = load ptr, ptr %32, align 8
  call void @heapgettup(ptr noundef %26, i32 noundef %27, i32 noundef %30, ptr noundef %33)
  br label %34

34:                                               ; preds = %25, %16
  %35 = load ptr, ptr %8, align 8
  %36 = getelementptr inbounds nuw %struct.HeapScanDescData, ptr %35, i32 0, i32 9
  %37 = getelementptr inbounds nuw %struct.HeapTupleData, ptr %36, i32 0, i32 3
  %38 = load ptr, ptr %37, align 8
  %39 = icmp eq ptr %38, null
  br i1 %39, label %40, label %43

40:                                               ; preds = %34
  %41 = load ptr, ptr %7, align 8
  %42 = call ptr @ExecClearTuple(ptr noundef %41)
  store i1 false, ptr %4, align 1
  store i32 1, ptr %9, align 4
  br label %94

43:                                               ; preds = %34
  br label %44

44:                                               ; preds = %43
  %45 = load ptr, ptr %8, align 8
  %46 = getelementptr inbounds nuw %struct.HeapScanDescData, ptr %45, i32 0, i32 0
  %47 = getelementptr inbounds nuw %struct.TableScanDescData, ptr %46, i32 0, i32 0
  %48 = load ptr, ptr %47, align 8
  %49 = getelementptr inbounds nuw %struct.RelationData, ptr %48, i32 0, i32 68
  %50 = load ptr, ptr %49, align 8
  %51 = icmp ne ptr %50, null
  %52 = zext i1 %51 to i32
  %53 = icmp ne i32 %52, 0
  %54 = zext i1 %53 to i32
  %55 = sext i32 %54 to i64
  %56 = call i64 @llvm.expect.i64(i64 %55, i64 1)
  %57 = icmp ne i64 %56, 0
  br i1 %57, label %58, label %59

58:                                               ; preds = %44
  br i1 true, label %73, label %84

59:                                               ; preds = %44
  %60 = load ptr, ptr %8, align 8
  %61 = getelementptr inbounds nuw %struct.HeapScanDescData, ptr %60, i32 0, i32 0
  %62 = getelementptr inbounds nuw %struct.TableScanDescData, ptr %61, i32 0, i32 0
  %63 = load ptr, ptr %62, align 8
  %64 = getelementptr inbounds nuw %struct.RelationData, ptr %63, i32 0, i32 67
  %65 = load i8, ptr %64, align 4, !range !4, !noundef !5
  %66 = trunc i8 %65 to i1
  br i1 %66, label %67, label %72

67:                                               ; preds = %59
  %68 = load ptr, ptr %8, align 8
  %69 = getelementptr inbounds nuw %struct.HeapScanDescData, ptr %68, i32 0, i32 0
  %70 = getelementptr inbounds nuw %struct.TableScanDescData, ptr %69, i32 0, i32 0
  %71 = load ptr, ptr %70, align 8
  call void @pgstat_assoc_relation(ptr noundef %71)
  br i1 true, label %73, label %84

72:                                               ; preds = %59
  br i1 false, label %73, label %84

73:                                               ; preds = %72, %67, %58
  %74 = load ptr, ptr %8, align 8
  %75 = getelementptr inbounds nuw %struct.HeapScanDescData, ptr %74, i32 0, i32 0
  %76 = getelementptr inbounds nuw %struct.TableScanDescData, ptr %75, i32 0, i32 0
  %77 = load ptr, ptr %76, align 8
  %78 = getelementptr inbounds nuw %struct.RelationData, ptr %77, i32 0, i32 68
  %79 = load ptr, ptr %78, align 8
  %80 = getelementptr inbounds nuw %struct.PgStat_TableStatus, ptr %79, i32 0, i32 3
  %81 = getelementptr inbounds nuw %struct.PgStat_TableCounts, ptr %80, i32 0, i32 1
  %82 = load i64, ptr %81, align 8
  %83 = add i64 %82, 1
  store i64 %83, ptr %81, align 8
  br label %84

84:                                               ; preds = %73, %72, %67, %58
  br label %85

85:                                               ; preds = %84
  br label %86

86:                                               ; preds = %85
  %87 = load ptr, ptr %8, align 8
  %88 = getelementptr inbounds nuw %struct.HeapScanDescData, ptr %87, i32 0, i32 9
  %89 = load ptr, ptr %7, align 8
  %90 = load ptr, ptr %8, align 8
  %91 = getelementptr inbounds nuw %struct.HeapScanDescData, ptr %90, i32 0, i32 7
  %92 = load i32, ptr %91, align 4
  %93 = call ptr @ExecStoreBufferHeapTuple(ptr noundef %88, ptr noundef %89, i32 noundef %92)
  store i1 true, ptr %4, align 1
  store i32 1, ptr %9, align 4
  br label %94

94:                                               ; preds = %86, %40
  call void @llvm.lifetime.end.p0(i64 8, ptr %8) #10
  %95 = load i1, ptr %4, align 1
  ret i1 %95
}