; Function Attrs: nounwind uwtable
define dso_local noundef zeroext i1 @heap_getnextslot(ptr noundef %0, i32 noundef %1, ptr noundef %2) local_unnamed_addr #2 {
  %4 = getelementptr inbounds nuw i8, ptr %0, i64 48
  %5 = load i32, ptr %4, align 8
  %6 = and i32 %5, 256
  %.not = icmp eq i32 %6, 0
  %7 = getelementptr inbounds nuw i8, ptr %0, i64 16
  %8 = load i32, ptr %7, align 8
  %9 = getelementptr inbounds nuw i8, ptr %0, i64 24
  %10 = load ptr, ptr %9, align 8
  br i1 %.not, label %12, label %11

11:                                               ; preds = %3
  tail call fastcc void @heapgettup_pagemode(ptr noundef nonnull %0, i32 noundef %1, i32 noundef %8, ptr noundef %10)
  br label %13

12:                                               ; preds = %3
  tail call fastcc void @heapgettup(ptr noundef nonnull %0, i32 noundef %1, i32 noundef %8, ptr noundef %10)
  br label %13

13:                                               ; preds = %12, %11
  %14 = getelementptr inbounds nuw i8, ptr %0, i64 96
  %15 = getelementptr inbounds nuw i8, ptr %0, i64 112
  %16 = load ptr, ptr %15, align 8
  %17 = icmp ne ptr %16, null
  br i1 %17, label %23, label %18

18:                                               ; preds = %13
  %19 = getelementptr inbounds nuw i8, ptr %2, i64 8
  %20 = load ptr, ptr %19, align 8
  %21 = getelementptr inbounds nuw i8, ptr %20, i64 24
  %22 = load ptr, ptr %21, align 8
  tail call void %22(ptr noundef %2) #13
  br label %41

23:                                               ; preds = %13
  %24 = load ptr, ptr %0, align 8
  %25 = getelementptr inbounds nuw i8, ptr %24, i64 480
  %26 = load ptr, ptr %25, align 8
  %.not19 = icmp eq ptr %26, null
  br i1 %.not19, label %27, label %32, !prof !5

27:                                               ; preds = %23
  %28 = getelementptr inbounds nuw i8, ptr %24, i64 476
  %29 = load i8, ptr %28, align 4, !range !6, !noundef !7
  %30 = trunc nuw i8 %29 to i1
  br i1 %30, label %31, label %37

31:                                               ; preds = %27
  tail call void @pgstat_assoc_relation(ptr noundef nonnull %24) #13
  %.pre = load ptr, ptr %0, align 8
  %.phi.trans.insert = getelementptr inbounds nuw i8, ptr %.pre, i64 480
  %.pre20 = load ptr, ptr %.phi.trans.insert, align 8
  br label %32

32:                                               ; preds = %23, %31
  %33 = phi ptr [ %26, %23 ], [ %.pre20, %31 ]
  %34 = getelementptr inbounds nuw i8, ptr %33, i64 24
  %35 = load i64, ptr %34, align 8
  %36 = add i64 %35, 1
  store i64 %36, ptr %34, align 8
  br label %37

37:                                               ; preds = %27, %32
  %38 = getelementptr inbounds nuw i8, ptr %0, i64 84
  %39 = load i32, ptr %38, align 4
  %40 = tail call ptr @ExecStoreBufferHeapTuple(ptr noundef nonnull %14, ptr noundef %2, i32 noundef %39) #13
  br label %41

41:                                               ; preds = %37, %18
  ret i1 %17
}